target datalayout = "e-m:e-p270:32:32-p271:32:32-p272:64:64-i64:64-i128:128-f80:128-n8:16:32:64-S128"
target triple = "x86_64-pc-linux-gnu"

%struct.BTMetaPageData = type { i32, i32, i32, i32, i32, i32, i32, double, i8 }
%struct.PageHeaderData = type { %struct.PageXLogRecPtr, i16, i16, i16, i16, i16, i16, i32, [0 x %struct.ItemIdData] }
%struct.PageXLogRecPtr = type { i32, i32 }
%struct.ItemIdData = type { i32 }
%struct.xl_btree_metadata = type { i32, i32, i32, i32, i32, i32, i8 }
%struct.RelationData = type { %struct.RelFileLocator, ptr, i32, i32, i8, i8, i8, i8, i8, i32, i32, i32, i32, ptr, ptr, i32, %struct.LockInfoData, ptr, ptr, ptr, ptr, ptr, i8, ptr, ptr, ptr, ptr, ptr, ptr, i32, ptr, i8, ptr, ptr, i32, i8, i32, ptr, i8, ptr, ptr, ptr, ptr, ptr, ptr, ptr, i32, ptr, ptr, ptr, ptr, ptr, ptr, ptr, ptr, ptr, ptr, ptr, ptr, ptr, ptr, ptr, ptr, ptr, ptr, ptr, i32, i8, ptr }
%struct.RelFileLocator = type { i32, i32, i32 }
%struct.LockInfoData = type { %struct.LockRelId }
%struct.LockRelId = type { i32, i32 }
%struct.FormData_pg_class = type { i32, %struct.nameData, i32, i32, i32, i32, i32, i32, i32, i32, float, i32, i32, i8, i8, i8, i8, i16, i16, i8, i8, i8, i8, i8, i8, i8, i8, i32, i32, i32 }
%struct.nameData = type { [64 x i8] }

@CritSectionCount = external global i32, align 4
@wal_level = external global i32, align 4
@LocalBufferBlockPointers = external global ptr, align 8
@BufferBlocks = external global ptr, align 8

; Function Attrs: inlinehint nounwind uwtable
define internal void @PageValidateSpecialPointer(ptr noundef %0) #2 {
  %2 = alloca ptr, align 8
  store ptr %0, ptr %2, align 8
  ret void
}

; Function Attrs: inlinehint nounwind uwtable
define internal ptr @BufferGetBlock(i32 noundef %0) #2 {
  %2 = alloca ptr, align 8
  %3 = alloca i32, align 4
  store i32 %0, ptr %3, align 4
  %4 = load i32, ptr %3, align 4
  %5 = icmp slt i32 %4, 0
  br i1 %5, label %6, label %14

6:                                                ; preds = %1
  %7 = load ptr, ptr @LocalBufferBlockPointers, align 8
  %8 = load i32, ptr %3, align 4
  %9 = sub i32 0, %8
  %10 = sub i32 %9, 1
  %11 = sext i32 %10 to i64
  %12 = getelementptr inbounds ptr, ptr %7, i64 %11
  %13 = load ptr, ptr %12, align 8
  store ptr %13, ptr %2, align 8
  br label %21

14:                                               ; preds = %1
  %15 = load ptr, ptr @BufferBlocks, align 8
  %16 = load i32, ptr %3, align 4
  %17 = sub i32 %16, 1
  %18 = sext i32 %17 to i64
  %19 = mul i64 %18, 8192
  %20 = getelementptr inbounds nuw i8, ptr %15, i64 %19
  store ptr %20, ptr %2, align 8
  br label %21

21:                                               ; preds = %14, %6
  %22 = load ptr, ptr %2, align 8
  ret ptr %22
}

; Function Attrs: inlinehint nounwind uwtable
define internal void @PageSetLSN(ptr noundef %0, i64 noundef %1) #2 {
  %3 = alloca ptr, align 8
  %4 = alloca i64, align 8
  store ptr %0, ptr %3, align 8
  store i64 %1, ptr %4, align 8
  %5 = load i64, ptr %4, align 8
  %6 = lshr i64 %5, 32
  %7 = trunc i64 %6 to i32
  %8 = load ptr, ptr %3, align 8
  %9 = getelementptr inbounds nuw %struct.PageHeaderData, ptr %8, i32 0, i32 0
  %10 = getelementptr inbounds nuw %struct.PageXLogRecPtr, ptr %9, i32 0, i32 0
  store i32 %7, ptr %10, align 4
  %11 = load i64, ptr %4, align 8
  %12 = trunc i64 %11 to i32
  %13 = load ptr, ptr %3, align 8
  %14 = getelementptr inbounds nuw %struct.PageHeaderData, ptr %13, i32 0, i32 0
  %15 = getelementptr inbounds nuw %struct.PageXLogRecPtr, ptr %14, i32 0, i32 1
  store i32 %12, ptr %15, align 4
  ret void
}

; Function Attrs: nounwind uwtable
define dso_local void @_bt_upgrademetapage(ptr noundef %0) #0 {
  %2 = alloca ptr, align 8
  %3 = alloca ptr, align 8
  %4 = alloca ptr, align 8
  store ptr %0, ptr %2, align 8
  call void @llvm.lifetime.start.p0(i64 8, ptr %3) #8
  call void @llvm.lifetime.start.p0(i64 8, ptr %4) #8
  %5 = load ptr, ptr %2, align 8
  %6 = call ptr @PageGetContents(ptr noundef %5)
  store ptr %6, ptr %3, align 8
  %7 = load ptr, ptr %2, align 8
  call void @PageValidateSpecialPointer(ptr noundef %7)
  %8 = load ptr, ptr %2, align 8
  %9 = load ptr, ptr %2, align 8
  %10 = getelementptr inbounds nuw %struct.PageHeaderData, ptr %9, i32 0, i32 5
  %11 = load i16, ptr %10, align 4
  %12 = zext i16 %11 to i32
  %13 = sext i32 %12 to i64
  %14 = getelementptr inbounds i8, ptr %8, i64 %13
  store ptr %14, ptr %4, align 8
  %15 = load ptr, ptr %3, align 8
  %16 = getelementptr inbounds nuw %struct.BTMetaPageData, ptr %15, i32 0, i32 1
  store i32 3, ptr %16, align 4
  %17 = load ptr, ptr %3, align 8
  %18 = getelementptr inbounds nuw %struct.BTMetaPageData, ptr %17, i32 0, i32 6
  store i32 0, ptr %18, align 8
  %19 = load ptr, ptr %3, align 8
  %20 = getelementptr inbounds nuw %struct.BTMetaPageData, ptr %19, i32 0, i32 7
  store double -1.000000e+00, ptr %20, align 8
  %21 = load ptr, ptr %3, align 8
  %22 = getelementptr inbounds nuw %struct.BTMetaPageData, ptr %21, i32 0, i32 8
  store i8 0, ptr %22, align 8
  %23 = load ptr, ptr %3, align 8
  %24 = getelementptr inbounds nuw i8, ptr %23, i64 48
  %25 = load ptr, ptr %2, align 8
  %26 = ptrtoint ptr %24 to i64
  %27 = ptrtoint ptr %25 to i64
  %28 = sub i64 %26, %27
  %29 = trunc i64 %28 to i16
  %30 = load ptr, ptr %2, align 8
  %31 = getelementptr inbounds nuw %struct.PageHeaderData, ptr %30, i32 0, i32 3
  store i16 %29, ptr %31, align 4
  call void @llvm.lifetime.end.p0(i64 8, ptr %4) #8
  call void @llvm.lifetime.end.p0(i64 8, ptr %3) #8
  ret void
}

; Function Attrs: nounwind uwtable
define dso_local void @_bt_lockbuf(ptr noundef %0, i32 noundef %1, i32 noundef %2) #0 {
  %4 = alloca ptr, align 8
  %5 = alloca i32, align 4
  %6 = alloca i32, align 4
  store ptr %0, ptr %4, align 8
  store i32 %1, ptr %5, align 4
  store i32 %2, ptr %6, align 4
  %7 = load i32, ptr %5, align 4
  %8 = load i32, ptr %6, align 4
  call void @LockBuffer(i32 noundef %7, i32 noundef %8)
  %9 = load ptr, ptr %4, align 8
  %10 = getelementptr inbounds nuw %struct.RelationData, ptr %9, i32 0, i32 13
  %11 = load ptr, ptr %10, align 8
  %12 = getelementptr inbounds nuw %struct.FormData_pg_class, ptr %11, i32 0, i32 15
  %13 = load i8, ptr %12, align 2
  %14 = sext i8 %13 to i32
  %15 = icmp eq i32 %14, 116
  br i1 %15, label %19, label %16

16:                                               ; preds = %3
  br label %17

17:                                               ; preds = %16
  br label %18

18:                                               ; preds = %17
  br label %19

19:                                               ; preds = %18, %3
  ret void
}

; Function Attrs: nounwind uwtable
define dso_local void @_bt_unlockbuf(ptr noundef %0, i32 noundef %1) #0 {
  %3 = alloca ptr, align 8
  %4 = alloca i32, align 4
  store ptr %0, ptr %3, align 8
  store i32 %1, ptr %4, align 4
  br label %5

5:                                                ; preds = %2
  br label %6

6:                                                ; preds = %5
  %7 = load i32, ptr %4, align 4
  call void @LockBuffer(i32 noundef %7, i32 noundef 0)
  %8 = load ptr, ptr %3, align 8
  %9 = getelementptr inbounds nuw %struct.RelationData, ptr %8, i32 0, i32 13
  %10 = load ptr, ptr %9, align 8
  %11 = getelementptr inbounds nuw %struct.FormData_pg_class, ptr %10, i32 0, i32 15
  %12 = load i8, ptr %11, align 2
  %13 = sext i8 %12 to i32
  %14 = icmp eq i32 %13, 116
  br i1 %14, label %18, label %15

15:                                               ; preds = %6
  br label %16

16:                                               ; preds = %15
  br label %17

17:                                               ; preds = %16
  br label %18

18:                                               ; preds = %17, %6
  ret void
}

; Function Attrs: nounwind uwtable
define dso_local void @_bt_relbuf(ptr noundef %0, i32 noundef %1) #0 {
  %3 = alloca ptr, align 8
  %4 = alloca i32, align 4
  store ptr %0, ptr %3, align 8
  store i32 %1, ptr %4, align 4
  %5 = load ptr, ptr %3, align 8
  %6 = load i32, ptr %4, align 4
  call void @_bt_unlockbuf(ptr noundef %5, i32 noundef %6)
  %7 = load i32, ptr %4, align 4
  call void @ReleaseBuffer(i32 noundef %7)
  ret void
}

; Function Attrs: inlinehint nounwind uwtable
define internal ptr @PageGetContents(ptr noundef %0) #2 {
  %2 = alloca ptr, align 8
  store ptr %0, ptr %2, align 8
  %3 = load ptr, ptr %2, align 8
  %4 = getelementptr inbounds nuw i8, ptr %3, i64 24
  ret ptr %4
}

; Function Attrs: inlinehint nounwind uwtable
define internal ptr @BufferGetPage(i32 noundef %0) #2 {
  %2 = alloca i32, align 4
  store i32 %0, ptr %2, align 4
  %3 = load i32, ptr %2, align 4
  %4 = call ptr @BufferGetBlock(i32 noundef %3)
  ret ptr %4
}

; Function Attrs: nounwind uwtable
define dso_local i32 @_bt_getbuf(ptr noundef %0, i32 noundef %1, i32 noundef %2) #0 {
  %4 = alloca ptr, align 8
  %5 = alloca i32, align 4
  %6 = alloca i32, align 4
  %7 = alloca i32, align 4
  store ptr %0, ptr %4, align 8
  store i32 %1, ptr %5, align 4
  store i32 %2, ptr %6, align 4
  call void @llvm.lifetime.start.p0(i64 4, ptr %7) #8
  %8 = load ptr, ptr %4, align 8
  %9 = load i32, ptr %5, align 4
  %10 = call i32 @ReadBuffer(ptr noundef %8, i32 noundef %9)
  store i32 %10, ptr %7, align 4
  %11 = load ptr, ptr %4, align 8
  %12 = load i32, ptr %7, align 4
  %13 = load i32, ptr %6, align 4
  call void @_bt_lockbuf(ptr noundef %11, i32 noundef %12, i32 noundef %13)
  %14 = load ptr, ptr %4, align 8
  %15 = load i32, ptr %7, align 4
  call void @_bt_checkpage(ptr noundef %14, i32 noundef %15)
  %16 = load i32, ptr %7, align 4
  call void @llvm.lifetime.end.p0(i64 4, ptr %7) #8
  ret i32 %16
}

; Function Attrs: nounwind uwtable
define dso_local void @_bt_set_cleanup_info(ptr noundef %0, i32 noundef %1) #0 {
  %3 = alloca ptr, align 8
  %4 = alloca i32, align 4
  %5 = alloca i32, align 4
  %6 = alloca ptr, align 8
  %7 = alloca ptr, align 8
  %8 = alloca i32, align 4
  %9 = alloca %struct.xl_btree_metadata, align 4
  %10 = alloca i64, align 8
  store ptr %0, ptr %3, align 8
  store i32 %1, ptr %4, align 4
  call void @llvm.lifetime.start.p0(i64 4, ptr %5) #8
  call void @llvm.lifetime.start.p0(i64 8, ptr %6) #8
  call void @llvm.lifetime.start.p0(i64 8, ptr %7) #8
  %11 = load ptr, ptr %3, align 8
  %12 = call i32 @_bt_getbuf(ptr noundef %11, i32 noundef 0, i32 noundef 1)
  store i32 %12, ptr %5, align 4
  %13 = load i32, ptr %5, align 4
  %14 = call ptr @BufferGetPage(i32 noundef %13)
  store ptr %14, ptr %6, align 8
  %15 = load ptr, ptr %6, align 8
  %16 = call ptr @PageGetContents(ptr noundef %15)
  store ptr %16, ptr %7, align 8
  %17 = load ptr, ptr %7, align 8
  %18 = getelementptr inbounds nuw %struct.BTMetaPageData, ptr %17, i32 0, i32 1
  %19 = load i32, ptr %18, align 4
  %20 = icmp uge i32 %19, 3
  br i1 %20, label %21, label %30

21:                                               ; preds = %2
  %22 = load ptr, ptr %7, align 8
  %23 = getelementptr inbounds nuw %struct.BTMetaPageData, ptr %22, i32 0, i32 6
  %24 = load i32, ptr %23, align 8
  %25 = load i32, ptr %4, align 4
  %26 = icmp eq i32 %24, %25
  br i1 %26, label %27, label %30

27:                                               ; preds = %21
  %28 = load ptr, ptr %3, align 8
  %29 = load i32, ptr %5, align 4
  call void @_bt_relbuf(ptr noundef %28, i32 noundef %29)
  store i32 1, ptr %8, align 4
  br label %111

30:                                               ; preds = %21, %2
  %31 = load ptr, ptr %3, align 8
  %32 = load i32, ptr %5, align 4
  call void @_bt_unlockbuf(ptr noundef %31, i32 noundef %32)
  %33 = load ptr, ptr %3, align 8
  %34 = load i32, ptr %5, align 4
  call void @_bt_lockbuf(ptr noundef %33, i32 noundef %34, i32 noundef 2)
  %35 = load volatile i32, ptr @CritSectionCount, align 4
  %36 = add i32 %35, 1
  store volatile i32 %36, ptr @CritSectionCount, align 4
  %37 = load ptr, ptr %7, align 8
  %38 = getelementptr inbounds nuw %struct.BTMetaPageData, ptr %37, i32 0, i32 1
  %39 = load i32, ptr %38, align 4
  %40 = icmp ult i32 %39, 3
  br i1 %40, label %41, label %43

41:                                               ; preds = %30
  %42 = load ptr, ptr %6, align 8
  call void @_bt_upgrademetapage(ptr noundef %42)
  br label %43

43:                                               ; preds = %41, %30
  %44 = load i32, ptr %4, align 4
  %45 = load ptr, ptr %7, align 8
  %46 = getelementptr inbounds nuw %struct.BTMetaPageData, ptr %45, i32 0, i32 6
  store i32 %44, ptr %46, align 8
  %47 = load ptr, ptr %7, align 8
  %48 = getelementptr inbounds nuw %struct.BTMetaPageData, ptr %47, i32 0, i32 7
  store double -1.000000e+00, ptr %48, align 8
  %49 = load i32, ptr %5, align 4
  call void @MarkBufferDirty(i32 noundef %49)
  %50 = load ptr, ptr %3, align 8
  %51 = getelementptr inbounds nuw %struct.RelationData, ptr %50, i32 0, i32 13
  %52 = load ptr, ptr %51, align 8
  %53 = getelementptr inbounds nuw %struct.FormData_pg_class, ptr %52, i32 0, i32 15
  %54 = load i8, ptr %53, align 2
  %55 = sext i8 %54 to i32
  %56 = icmp eq i32 %55, 112
  br i1 %56, label %57, label %103

57:                                               ; preds = %43
  %58 = load i32, ptr @wal_level, align 4
  %59 = icmp sge i32 %58, 1
  br i1 %59, label %70, label %60

60:                                               ; preds = %57
  %61 = load ptr, ptr %3, align 8
  %62 = getelementptr inbounds nuw %struct.RelationData, ptr %61, i32 0, i32 9
  %63 = load i32, ptr %62, align 8
  %64 = icmp eq i32 %63, 0
  br i1 %64, label %65, label %103

65:                                               ; preds = %60
  %66 = load ptr, ptr %3, align 8
  %67 = getelementptr inbounds nuw %struct.RelationData, ptr %66, i32 0, i32 11
  %68 = load i32, ptr %67, align 8
  %69 = icmp eq i32 %68, 0
  br i1 %69, label %70, label %103

70:                                               ; preds = %65, %57
  call void @llvm.lifetime.start.p0(i64 28, ptr %9) #8
  call void @llvm.lifetime.start.p0(i64 8, ptr %10) #8
  call void @XLogBeginInsert()
  %71 = load i32, ptr %5, align 4
  call void @XLogRegisterBuffer(i8 noundef zeroext 0, i32 noundef %71, i8 noundef zeroext 14)
  %72 = load ptr, ptr %7, align 8
  %73 = getelementptr inbounds nuw %struct.BTMetaPageData, ptr %72, i32 0, i32 1
  %74 = load i32, ptr %73, align 4
  %75 = getelementptr inbounds nuw %struct.xl_btree_metadata, ptr %9, i32 0, i32 0
  store i32 %74, ptr %75, align 4
  %76 = load ptr, ptr %7, align 8
  %77 = getelementptr inbounds nuw %struct.BTMetaPageData, ptr %76, i32 0, i32 2
  %78 = load i32, ptr %77, align 8
  %79 = getelementptr inbounds nuw %struct.xl_btree_metadata, ptr %9, i32 0, i32 1
  store i32 %78, ptr %79, align 4
  %80 = load ptr, ptr %7, align 8
  %81 = getelementptr inbounds nuw %struct.BTMetaPageData, ptr %80, i32 0, i32 3
  %82 = load i32, ptr %81, align 4
  %83 = getelementptr inbounds nuw %struct.xl_btree_metadata, ptr %9, i32 0, i32 2
  store i32 %82, ptr %83, align 4
  %84 = load ptr, ptr %7, align 8
  %85 = getelementptr inbounds nuw %struct.BTMetaPageData, ptr %84, i32 0, i32 4
  %86 = load i32, ptr %85, align 8
  %87 = getelementptr inbounds nuw %struct.xl_btree_metadata, ptr %9, i32 0, i32 3
  store i32 %86, ptr %87, align 4
  %88 = load ptr, ptr %7, align 8
  %89 = getelementptr inbounds nuw %struct.BTMetaPageData, ptr %88, i32 0, i32 5
  %90 = load i32, ptr %89, align 4
  %91 = getelementptr inbounds nuw %struct.xl_btree_metadata, ptr %9, i32 0, i32 4
  store i32 %90, ptr %91, align 4
  %92 = load i32, ptr %4, align 4
  %93 = getelementptr inbounds nuw %struct.xl_btree_metadata, ptr %9, i32 0, i32 5
  store i32 %92, ptr %93, align 4
  %94 = load ptr, ptr %7, align 8
  %95 = getelementptr inbounds nuw %struct.BTMetaPageData, ptr %94, i32 0, i32 8
  %96 = load i8, ptr %95, align 8, !range !4, !noundef !5
  %97 = trunc i8 %96 to i1
  %98 = getelementptr inbounds nuw %struct.xl_btree_metadata, ptr %9, i32 0, i32 6
  %99 = zext i1 %97 to i8
  store i8 %99, ptr %98, align 4
  call void @XLogRegisterBufData(i8 noundef zeroext 0, ptr noundef %9, i32 noundef 28)
  %100 = call i64 @XLogInsert(i8 noundef zeroext 11, i8 noundef zeroext -32)
  store i64 %100, ptr %10, align 8
  %101 = load ptr, ptr %6, align 8
  %102 = load i64, ptr %10, align 8
  call void @PageSetLSN(ptr noundef %101, i64 noundef %102)
  call void @llvm.lifetime.end.p0(i64 8, ptr %10) #8
  call void @llvm.lifetime.end.p0(i64 28, ptr %9) #8
  br label %103

103:                                              ; preds = %70, %65, %60, %43
  br label %104

104:                                              ; preds = %103
  %105 = load volatile i32, ptr @CritSectionCount, align 4
  %106 = add i32 %105, -1
  store volatile i32 %106, ptr @CritSectionCount, align 4
  br label %107

107:                                              ; preds = %104
  br label %108

108:                                              ; preds = %107
  %109 = load ptr, ptr %3, align 8
  %110 = load i32, ptr %5, align 4
  call void @_bt_relbuf(ptr noundef %109, i32 noundef %110)
  store i32 0, ptr %8, align 4
  br label %111

111:                                              ; preds = %108, %27
  call void @llvm.lifetime.end.p0(i64 8, ptr %7) #8
  call void @llvm.lifetime.end.p0(i64 8, ptr %6) #8
  call void @llvm.lifetime.end.p0(i64 4, ptr %5) #8
  %112 = load i32, ptr %8, align 4
  switch i32 %112, label %114 [
    i32 0, label %113
    i32 1, label %113
  ]

113:                                              ; preds = %111, %111
  ret void

114:                                              ; preds = %111
  unreachable
}