; Function Attrs: nounwind uwtable
define dso_local void @_bt_set_cleanup_info(ptr noundef %0, i32 noundef %1) local_unnamed_addr #0 {
  %3 = alloca %struct.xl_btree_metadata, align 4
  %4 = tail call i32 @ReadBuffer(ptr noundef %0, i32 noundef 0) #10
  tail call void @LockBuffer(i32 noundef %4, i32 noundef 1) #10
  tail call void @_bt_checkpage(ptr noundef %0, i32 noundef %4)
  %5 = icmp slt i32 %4, 0
  br i1 %5, label %6, label %12

6:                                                ; preds = %2
  %7 = load ptr, ptr @LocalBufferBlockPointers, align 8
  %8 = xor i32 %4, -1
  %9 = zext nneg i32 %8 to i64
  %10 = getelementptr inbounds nuw ptr, ptr %7, i64 %9
  %11 = load ptr, ptr %10, align 8
  br label %BufferGetPage.exit

12:                                               ; preds = %2
  %13 = load ptr, ptr @BufferBlocks, align 8
  %14 = add nsw i32 %4, -1
  %15 = sext i32 %14 to i64
  %16 = shl nsw i64 %15, 13
  %17 = getelementptr inbounds nuw i8, ptr %13, i64 %16
  br label %BufferGetPage.exit

BufferGetPage.exit:                               ; preds = %6, %12
  %.0.i.i = phi ptr [ %11, %6 ], [ %17, %12 ]
  %18 = getelementptr inbounds nuw i8, ptr %.0.i.i, i64 28
  %19 = load i32, ptr %18, align 4
  %20 = icmp ugt i32 %19, 2
  br i1 %20, label %21, label %26

21:                                               ; preds = %BufferGetPage.exit
  %22 = getelementptr inbounds nuw i8, ptr %.0.i.i, i64 48
  %23 = load i32, ptr %22, align 8
  %24 = icmp eq i32 %23, %1
  br i1 %24, label %25, label %26

25:                                               ; preds = %21
  tail call void @LockBuffer(i32 noundef %4, i32 noundef 0) #10
  tail call void @ReleaseBuffer(i32 noundef %4) #10
  br label %79

26:                                               ; preds = %21, %BufferGetPage.exit
  tail call void @LockBuffer(i32 noundef %4, i32 noundef 0) #10
  tail call void @LockBuffer(i32 noundef %4, i32 noundef 2) #10
  %27 = load volatile i32, ptr @CritSectionCount, align 4
  %28 = add i32 %27, 1
  store volatile i32 %28, ptr @CritSectionCount, align 4
  %29 = load i32, ptr %18, align 4
  %30 = icmp ult i32 %29, 3
  br i1 %30, label %31, label %34

31:                                               ; preds = %26
  store i32 3, ptr %18, align 4
  %32 = getelementptr inbounds nuw i8, ptr %.0.i.i, i64 64
  store i8 0, ptr %32, align 8
  %33 = getelementptr inbounds nuw i8, ptr %.0.i.i, i64 12
  store i16 72, ptr %33, align 4
  br label %34

34:                                               ; preds = %31, %26
  %35 = getelementptr inbounds nuw i8, ptr %.0.i.i, i64 48
  store i32 %1, ptr %35, align 8
  %36 = getelementptr inbounds nuw i8, ptr %.0.i.i, i64 56
  store double -1.000000e+00, ptr %36, align 8
  tail call void @MarkBufferDirty(i32 noundef %4) #10
  %37 = getelementptr inbounds nuw i8, ptr %0, i64 56
  %38 = load ptr, ptr %37, align 8
  %39 = getelementptr inbounds nuw i8, ptr %38, i64 114
  %40 = load i8, ptr %39, align 2
  %41 = icmp eq i8 %40, 112
  br i1 %41, label %42, label %76

42:                                               ; preds = %34
  %43 = load i32, ptr @wal_level, align 4
  %44 = icmp sgt i32 %43, 0
  br i1 %44, label %53, label %45

45:                                               ; preds = %42
  %46 = getelementptr inbounds nuw i8, ptr %0, i64 40
  %47 = load i32, ptr %46, align 8
  %48 = icmp eq i32 %47, 0
  br i1 %48, label %49, label %76

49:                                               ; preds = %45
  %50 = getelementptr inbounds nuw i8, ptr %0, i64 48
  %51 = load i32, ptr %50, align 8
  %52 = icmp eq i32 %51, 0
  br i1 %52, label %53, label %76

53:                                               ; preds = %49, %42
  call void @llvm.lifetime.start.p0(i64 28, ptr nonnull %3) #10
  tail call void @XLogBeginInsert() #10
  tail call void @XLogRegisterBuffer(i8 noundef zeroext 0, i32 noundef %4, i8 noundef zeroext 14) #10
  %54 = load i32, ptr %18, align 4
  store i32 %54, ptr %3, align 4
  %55 = getelementptr inbounds nuw i8, ptr %.0.i.i, i64 32
  %56 = load i32, ptr %55, align 8
  %57 = getelementptr inbounds nuw i8, ptr %3, i64 4
  store i32 %56, ptr %57, align 4
  %58 = getelementptr inbounds nuw i8, ptr %.0.i.i, i64 36
  %59 = load i32, ptr %58, align 4
  %60 = getelementptr inbounds nuw i8, ptr %3, i64 8
  store i32 %59, ptr %60, align 4
  %61 = getelementptr inbounds nuw i8, ptr %.0.i.i, i64 40
  %62 = load i32, ptr %61, align 8
  %63 = getelementptr inbounds nuw i8, ptr %3, i64 12
  store i32 %62, ptr %63, align 4
  %64 = getelementptr inbounds nuw i8, ptr %.0.i.i, i64 44
  %65 = load i32, ptr %64, align 4
  %66 = getelementptr inbounds nuw i8, ptr %3, i64 16
  store i32 %65, ptr %66, align 4
  %67 = getelementptr inbounds nuw i8, ptr %3, i64 20
  store i32 %1, ptr %67, align 4
  %68 = getelementptr inbounds nuw i8, ptr %.0.i.i, i64 64
  %69 = load i8, ptr %68, align 8, !range !4, !noundef !5
  %70 = getelementptr inbounds nuw i8, ptr %3, i64 24
  store i8 %69, ptr %70, align 4
  call void @XLogRegisterBufData(i8 noundef zeroext 0, ptr noundef nonnull %3, i32 noundef 28) #10
  %71 = call i64 @XLogInsert(i8 noundef zeroext 11, i8 noundef zeroext -32) #10
  %72 = lshr i64 %71, 32
  %73 = trunc nuw i64 %72 to i32
  store i32 %73, ptr %.0.i.i, align 4
  %74 = trunc i64 %71 to i32
  %75 = getelementptr inbounds nuw i8, ptr %.0.i.i, i64 4
  store i32 %74, ptr %75, align 4
  call void @llvm.lifetime.end.p0(i64 28, ptr nonnull %3) #10
  br label %76

76:                                               ; preds = %34, %45, %49, %53
  %77 = load volatile i32, ptr @CritSectionCount, align 4
  %78 = add i32 %77, -1
  store volatile i32 %78, ptr @CritSectionCount, align 4
  call void @LockBuffer(i32 noundef %4, i32 noundef 0) #10
  call void @ReleaseBuffer(i32 noundef %4) #10
  br label %79

79:                                               ; preds = %76, %25
  ret void
}